#include <math.h>
#include <stdio.h>
#include <stdlib.h>
#include <string.h>


int main()
{
    int row,col,i,j,k;
    int *array[100][100];
    scanf("%d %d",&row,&col);
    for (i=0;i<row;i++)
        for (j=0;j<col;j++)
            scanf("%d",*(array+i)+j);
    for (k=0;k<=row+col;k++)
        for (i=0;i<row;i++)
            for (j=0;j<col;j++)
                if (i+j==k)
                    printf("%d\n",*(*(array+i)+j));
}

