; ModuleID = '4/1552.c'
source_filename = "4/1552.c"
target datalayout = "e-m:e-p270:32:32-p271:32:32-p272:64:64-i64:64-f80:128-n8:16:32:64-S128"
target triple = "x86_64-pc-linux-gnu"

@.str = private unnamed_addr constant [6 x i8] c"%d %d\00", align 1
@.str.1 = private unnamed_addr constant [3 x i8] c"%d\00", align 1
@.str.2 = private unnamed_addr constant [4 x i8] c"%d\0A\00", align 1

; Function Attrs: noinline nounwind uwtable
define dso_local i32 @main() #0 {
  %1 = alloca i32, align 4
  %2 = alloca i32, align 4
  %3 = alloca i32, align 4
  %4 = alloca i32, align 4
  %5 = alloca i32, align 4
  %6 = alloca i32, align 4
  %7 = alloca [100 x [100 x i32*]], align 16
  store i32 0, i32* %1, align 4
  %8 = call i32 (i8*, ...) @__isoc99_scanf(i8* getelementptr inbounds ([6 x i8], [6 x i8]* @.str, i64 0, i64 0), i32* %2, i32* %3)
  store i32 0, i32* %4, align 4
  br label %9

9:                                                ; preds = %32, %0
  %10 = load i32, i32* %4, align 4
  %11 = load i32, i32* %2, align 4
  %12 = icmp slt i32 %10, %11
  br i1 %12, label %13, label %35

13:                                               ; preds = %9
  store i32 0, i32* %5, align 4
  br label %14

14:                                               ; preds = %28, %13
  %15 = load i32, i32* %5, align 4
  %16 = load i32, i32* %3, align 4
  %17 = icmp slt i32 %15, %16
  br i1 %17, label %18, label %31

18:                                               ; preds = %14
  %19 = getelementptr inbounds [100 x [100 x i32*]], [100 x [100 x i32*]]* %7, i64 0, i64 0
  %20 = load i32, i32* %4, align 4
  %21 = sext i32 %20 to i64
  %22 = getelementptr inbounds [100 x i32*], [100 x i32*]* %19, i64 %21
  %23 = getelementptr inbounds [100 x i32*], [100 x i32*]* %22, i64 0, i64 0
  %24 = load i32, i32* %5, align 4
  %25 = sext i32 %24 to i64
  %26 = getelementptr inbounds i32*, i32** %23, i64 %25
  %27 = call i32 (i8*, ...) @__isoc99_scanf(i8* getelementptr inbounds ([3 x i8], [3 x i8]* @.str.1, i64 0, i64 0), i32** %26)
  br label %28

28:                                               ; preds = %18
  %29 = load i32, i32* %5, align 4
  %30 = add nsw i32 %29, 1
  store i32 %30, i32* %5, align 4
  br label %14

31:                                               ; preds = %14
  br label %32

32:                                               ; preds = %31
  %33 = load i32, i32* %4, align 4
  %34 = add nsw i32 %33, 1
  store i32 %34, i32* %4, align 4
  br label %9

35:                                               ; preds = %9
  store i32 0, i32* %6, align 4
  br label %36

36:                                               ; preds = %78, %35
  %37 = load i32, i32* %6, align 4
  %38 = load i32, i32* %2, align 4
  %39 = load i32, i32* %3, align 4
  %40 = add nsw i32 %38, %39
  %41 = icmp sle i32 %37, %40
  br i1 %41, label %42, label %81

42:                                               ; preds = %36
  store i32 0, i32* %4, align 4
  br label %43

43:                                               ; preds = %74, %42
  %44 = load i32, i32* %4, align 4
  %45 = load i32, i32* %2, align 4
  %46 = icmp slt i32 %44, %45
  br i1 %46, label %47, label %77

47:                                               ; preds = %43
  store i32 0, i32* %5, align 4
  br label %48

48:                                               ; preds = %70, %47
  %49 = load i32, i32* %5, align 4
  %50 = load i32, i32* %3, align 4
  %51 = icmp slt i32 %49, %50
  br i1 %51, label %52, label %73

52:                                               ; preds = %48
  %53 = load i32, i32* %4, align 4
  %54 = load i32, i32* %5, align 4
  %55 = add nsw i32 %53, %54
  %56 = load i32, i32* %6, align 4
  %57 = icmp eq i32 %55, %56
  br i1 %57, label %58, label %69

58:                                               ; preds = %52
  %59 = getelementptr inbounds [100 x [100 x i32*]], [100 x [100 x i32*]]* %7, i64 0, i64 0
  %60 = load i32, i32* %4, align 4
  %61 = sext i32 %60 to i64
  %62 = getelementptr inbounds [100 x i32*], [100 x i32*]* %59, i64 %61
  %63 = getelementptr inbounds [100 x i32*], [100 x i32*]* %62, i64 0, i64 0
  %64 = load i32, i32* %5, align 4
  %65 = sext i32 %64 to i64
  %66 = getelementptr inbounds i32*, i32** %63, i64 %65
  %67 = load i32*, i32** %66, align 8
  %68 = call i32 (i8*, ...) @printf(i8* getelementptr inbounds ([4 x i8], [4 x i8]* @.str.2, i64 0, i64 0), i32* %67)
  br label %69

69:                                               ; preds = %58, %52
  br label %70

70:                                               ; preds = %69
  %71 = load i32, i32* %5, align 4
  %72 = add nsw i32 %71, 1
  store i32 %72, i32* %5, align 4
  br label %48

73:                                               ; preds = %48
  br label %74

74:                                               ; preds = %73
  %75 = load i32, i32* %4, align 4
  %76 = add nsw i32 %75, 1
  store i32 %76, i32* %4, align 4
  br label %43

77:                                               ; preds = %43
  br label %78

78:                                               ; preds = %77
  %79 = load i32, i32* %6, align 4
  %80 = add nsw i32 %79, 1
  store i32 %80, i32* %6, align 4
  br label %36

81:                                               ; preds = %36
  %82 = load i32, i32* %1, align 4
  ret i32 %82
}

declare dso_local i32 @__isoc99_scanf(i8*, ...) #1

declare dso_local i32 @printf(i8*, ...) #1


!llvm.module.flags = !{!0}
!llvm.ident = !{!1}

!0 = !{i32 1, !"wchar_size", i32 4}
!1 = !{!"clang version 10.0.0-4ubuntu1 "}
